; Function Attrs: nounwind sspstrong uwtable
define dso_local i64 @rb_singleton_class(i64 noundef %0) local_unnamed_addr #0 {
  %2 = tail call fastcc i64 @singleton_class_of(i64 noundef %0)
  %3 = icmp eq i64 %0, 0
  %4 = and i64 %0, 7
  %5 = icmp ne i64 %4, 0
  %6 = or i1 %3, %5
  br i1 %6, label %rbimpl_RB_TYPE_P_fastpath.exit.thread, label %rbimpl_RB_TYPE_P_fastpath.exit

rbimpl_RB_TYPE_P_fastpath.exit:                   ; preds = %1
  %7 = inttoptr i64 %0 to ptr
  %8 = load i64, ptr %7, align 8, !tbaa !35
  %9 = and i64 %8, 31
  %10 = icmp eq i64 %9, 2
  br i1 %10, label %11, label %rbimpl_RB_TYPE_P_fastpath.exit.thread

11:                                               ; preds = %rbimpl_RB_TYPE_P_fastpath.exit
  %12 = inttoptr i64 %2 to ptr
  %13 = getelementptr inbounds nuw i8, ptr %12, i64 8
  %14 = load i64, ptr %13, align 8, !tbaa !42
  %15 = icmp eq i64 %14, 0
  %16 = and i64 %14, 7
  %17 = icmp ne i64 %16, 0
  %18 = or i1 %15, %17
  br i1 %18, label %RB_FL_TEST.exit.thread, label %RB_FL_ABLE.exit.i

RB_FL_ABLE.exit.i:                                ; preds = %11
  %19 = inttoptr i64 %14 to ptr
  %20 = load i64, ptr %19, align 8, !tbaa !35
  %21 = and i64 %20, 31
  %.not.i = icmp eq i64 %21, 27
  %22 = and i64 %20, 8192
  %.not = icmp eq i64 %22, 0
  %or.cond = or i1 %.not.i, %.not
  br i1 %or.cond, label %RB_FL_TEST.exit.thread, label %23

23:                                               ; preds = %RB_FL_ABLE.exit.i
  %24 = getelementptr inbounds nuw i8, ptr %19, i64 128
  %25 = load i64, ptr %24, align 8, !tbaa !32
  %.not11 = icmp eq i64 %25, %2
  br i1 %.not11, label %rbimpl_RB_TYPE_P_fastpath.exit.thread, label %RB_FL_TEST.exit.thread

RB_FL_TEST.exit.thread:                           ; preds = %RB_FL_ABLE.exit.i, %11, %23
  %26 = tail call fastcc i64 @make_metaclass(i64 noundef %2)
  br label %rbimpl_RB_TYPE_P_fastpath.exit.thread

rbimpl_RB_TYPE_P_fastpath.exit.thread:            ; preds = %1, %RB_FL_TEST.exit.thread, %23, %rbimpl_RB_TYPE_P_fastpath.exit
  ret i64 %2
}